; Function Attrs: nounwind uwtable
define internal ptr @ml_kem_1024_new(ptr noundef %0) #0 {
  %2 = tail call i32 @ossl_prov_is_running() #7
  %.not.i = icmp eq i32 %2, 0
  br i1 %.not.i, label %ml_kem_new.exit, label %3

3:                                                ; preds = %1
  %4 = tail call ptr @ossl_prov_ctx_get0_libctx(ptr noundef %0) #7
  %5 = tail call ptr @ossl_ml_kem_key_new(ptr noundef %4, ptr noundef null, i32 noundef 1456) #7
  %.not9.i = icmp eq ptr %5, null
  br i1 %.not9.i, label %ml_kem_new.exit, label %6

6:                                                ; preds = %3
  %7 = tail call i32 @ossl_prov_ctx_get_bool_param(ptr noundef %0, ptr noundef nonnull @.str, i32 noundef 1) #7
  %8 = getelementptr inbounds nuw i8, ptr %5, i64 108
  store i32 %7, ptr %8, align 4, !tbaa !3
  %9 = tail call i32 @ossl_prov_ctx_get_bool_param(ptr noundef %0, ptr noundef nonnull @.str.1, i32 noundef 1) #7
  %10 = getelementptr inbounds nuw i8, ptr %5, i64 104
  store i32 %9, ptr %10, align 8, !tbaa !13
  br label %ml_kem_new.exit

ml_kem_new.exit:                                  ; preds = %1, %3, %6
  %.0.i = phi ptr [ null, %1 ], [ %5, %6 ], [ null, %3 ]
  ret ptr %.0.i
}